target datalayout = "e-m:e-p270:32:32-p271:32:32-p272:64:64-i64:64-i128:128-f80:128-n8:16:32:64-S128"
target triple = "x86_64-pc-linux-gnu"

%struct.ole2_header_tag = type { [8 x i8], [16 x i8], i16, i16, i16, i16, i32, [2 x i32], i32, i32, i32, i32, i32, i32, i32, i32, [109 x i32], i32, i32, i64, ptr, ptr, ptr, i8, i8, i8, ptr }

@cli_debug_flag = external global i8, align 1
@.str.52 = private unnamed_addr constant [2 x i8] c"\0A\00", align 1
@.str.53 = private unnamed_addr constant [29 x i8] c"Magic:\09\09\090x%x%x%x%x%x%x%x%x\0A\00", align 1
@.str.54 = private unnamed_addr constant [49 x i8] c"CLSID:\09\09\09{%x%x%x%x-%x%x-%x%x-%x%x-%x%x%x%x%x%x}\0A\00", align 1
@.str.55 = private unnamed_addr constant [22 x i8] c"Minor version:\09\090x%x\0A\00", align 1
@.str.56 = private unnamed_addr constant [20 x i8] c"DLL version:\09\090x%x\0A\00", align 1
@.str.57 = private unnamed_addr constant [17 x i8] c"Byte Order:\09\09%d\0A\00", align 1
@.str.58 = private unnamed_addr constant [20 x i8] c"Big Block Size:\09%i\0A\00", align 1
@.str.59 = private unnamed_addr constant [22 x i8] c"Small Block Size:\09%i\0A\00", align 1
@.str.60 = private unnamed_addr constant [16 x i8] c"BAT count:\09\09%d\0A\00", align 1
@.str.61 = private unnamed_addr constant [17 x i8] c"Prop start:\09\09%d\0A\00", align 1
@.str.62 = private unnamed_addr constant [18 x i8] c"SBAT cutoff:\09\09%d\0A\00", align 1
@.str.63 = private unnamed_addr constant [17 x i8] c"SBat start:\09\09%d\0A\00", align 1
@.str.64 = private unnamed_addr constant [22 x i8] c"SBat block count:\09%d\0A\00", align 1
@.str.65 = private unnamed_addr constant [17 x i8] c"XBat start:\09\09%d\0A\00", align 1
@.str.66 = private unnamed_addr constant [22 x i8] c"XBat block count:\09%d\0A\00", align 1

; Function Attrs: nounwind uwtable
define internal void @print_ole2_header(ptr noundef %0) #0 {
  %2 = alloca ptr, align 8
  store ptr %0, ptr %2, align 8
  %3 = load ptr, ptr %2, align 8
  %4 = icmp ne ptr %3, null
  br i1 %4, label %5, label %8

5:                                                ; preds = %1
  %6 = load i8, ptr @cli_debug_flag, align 1
  %7 = icmp ne i8 %6, 0
  br i1 %7, label %9, label %8

8:                                                ; preds = %5, %1
  br label %170

9:                                                ; preds = %5
  call void (ptr, ...) @cli_dbgmsg(ptr noundef @.str.52)
  %10 = load ptr, ptr %2, align 8
  %11 = getelementptr inbounds %struct.ole2_header_tag, ptr %10, i32 0, i32 0
  %12 = getelementptr inbounds [8 x i8], ptr %11, i64 0, i64 0
  %13 = load i8, ptr %12, align 8
  %14 = zext i8 %13 to i32
  %15 = load ptr, ptr %2, align 8
  %16 = getelementptr inbounds %struct.ole2_header_tag, ptr %15, i32 0, i32 0
  %17 = getelementptr inbounds [8 x i8], ptr %16, i64 0, i64 1
  %18 = load i8, ptr %17, align 1
  %19 = zext i8 %18 to i32
  %20 = load ptr, ptr %2, align 8
  %21 = getelementptr inbounds %struct.ole2_header_tag, ptr %20, i32 0, i32 0
  %22 = getelementptr inbounds [8 x i8], ptr %21, i64 0, i64 2
  %23 = load i8, ptr %22, align 2
  %24 = zext i8 %23 to i32
  %25 = load ptr, ptr %2, align 8
  %26 = getelementptr inbounds %struct.ole2_header_tag, ptr %25, i32 0, i32 0
  %27 = getelementptr inbounds [8 x i8], ptr %26, i64 0, i64 3
  %28 = load i8, ptr %27, align 1
  %29 = zext i8 %28 to i32
  %30 = load ptr, ptr %2, align 8
  %31 = getelementptr inbounds %struct.ole2_header_tag, ptr %30, i32 0, i32 0
  %32 = getelementptr inbounds [8 x i8], ptr %31, i64 0, i64 4
  %33 = load i8, ptr %32, align 4
  %34 = zext i8 %33 to i32
  %35 = load ptr, ptr %2, align 8
  %36 = getelementptr inbounds %struct.ole2_header_tag, ptr %35, i32 0, i32 0
  %37 = getelementptr inbounds [8 x i8], ptr %36, i64 0, i64 5
  %38 = load i8, ptr %37, align 1
  %39 = zext i8 %38 to i32
  %40 = load ptr, ptr %2, align 8
  %41 = getelementptr inbounds %struct.ole2_header_tag, ptr %40, i32 0, i32 0
  %42 = getelementptr inbounds [8 x i8], ptr %41, i64 0, i64 6
  %43 = load i8, ptr %42, align 2
  %44 = zext i8 %43 to i32
  %45 = load ptr, ptr %2, align 8
  %46 = getelementptr inbounds %struct.ole2_header_tag, ptr %45, i32 0, i32 0
  %47 = getelementptr inbounds [8 x i8], ptr %46, i64 0, i64 7
  %48 = load i8, ptr %47, align 1
  %49 = zext i8 %48 to i32
  call void (ptr, ...) @cli_dbgmsg(ptr noundef @.str.53, i32 noundef %14, i32 noundef %19, i32 noundef %24, i32 noundef %29, i32 noundef %34, i32 noundef %39, i32 noundef %44, i32 noundef %49)
  %50 = load ptr, ptr %2, align 8
  %51 = getelementptr inbounds %struct.ole2_header_tag, ptr %50, i32 0, i32 1
  %52 = getelementptr inbounds [16 x i8], ptr %51, i64 0, i64 0
  %53 = load i8, ptr %52, align 8
  %54 = zext i8 %53 to i32
  %55 = load ptr, ptr %2, align 8
  %56 = getelementptr inbounds %struct.ole2_header_tag, ptr %55, i32 0, i32 1
  %57 = getelementptr inbounds [16 x i8], ptr %56, i64 0, i64 1
  %58 = load i8, ptr %57, align 1
  %59 = zext i8 %58 to i32
  %60 = load ptr, ptr %2, align 8
  %61 = getelementptr inbounds %struct.ole2_header_tag, ptr %60, i32 0, i32 1
  %62 = getelementptr inbounds [16 x i8], ptr %61, i64 0, i64 2
  %63 = load i8, ptr %62, align 2
  %64 = zext i8 %63 to i32
  %65 = load ptr, ptr %2, align 8
  %66 = getelementptr inbounds %struct.ole2_header_tag, ptr %65, i32 0, i32 1
  %67 = getelementptr inbounds [16 x i8], ptr %66, i64 0, i64 3
  %68 = load i8, ptr %67, align 1
  %69 = zext i8 %68 to i32
  %70 = load ptr, ptr %2, align 8
  %71 = getelementptr inbounds %struct.ole2_header_tag, ptr %70, i32 0, i32 1
  %72 = getelementptr inbounds [16 x i8], ptr %71, i64 0, i64 4
  %73 = load i8, ptr %72, align 4
  %74 = zext i8 %73 to i32
  %75 = load ptr, ptr %2, align 8
  %76 = getelementptr inbounds %struct.ole2_header_tag, ptr %75, i32 0, i32 1
  %77 = getelementptr inbounds [16 x i8], ptr %76, i64 0, i64 5
  %78 = load i8, ptr %77, align 1
  %79 = zext i8 %78 to i32
  %80 = load ptr, ptr %2, align 8
  %81 = getelementptr inbounds %struct.ole2_header_tag, ptr %80, i32 0, i32 1
  %82 = getelementptr inbounds [16 x i8], ptr %81, i64 0, i64 6
  %83 = load i8, ptr %82, align 2
  %84 = zext i8 %83 to i32
  %85 = load ptr, ptr %2, align 8
  %86 = getelementptr inbounds %struct.ole2_header_tag, ptr %85, i32 0, i32 1
  %87 = getelementptr inbounds [16 x i8], ptr %86, i64 0, i64 7
  %88 = load i8, ptr %87, align 1
  %89 = zext i8 %88 to i32
  %90 = load ptr, ptr %2, align 8
  %91 = getelementptr inbounds %struct.ole2_header_tag, ptr %90, i32 0, i32 1
  %92 = getelementptr inbounds [16 x i8], ptr %91, i64 0, i64 8
  %93 = load i8, ptr %92, align 8
  %94 = zext i8 %93 to i32
  %95 = load ptr, ptr %2, align 8
  %96 = getelementptr inbounds %struct.ole2_header_tag, ptr %95, i32 0, i32 1
  %97 = getelementptr inbounds [16 x i8], ptr %96, i64 0, i64 9
  %98 = load i8, ptr %97, align 1
  %99 = zext i8 %98 to i32
  %100 = load ptr, ptr %2, align 8
  %101 = getelementptr inbounds %struct.ole2_header_tag, ptr %100, i32 0, i32 1
  %102 = getelementptr inbounds [16 x i8], ptr %101, i64 0, i64 10
  %103 = load i8, ptr %102, align 2
  %104 = zext i8 %103 to i32
  %105 = load ptr, ptr %2, align 8
  %106 = getelementptr inbounds %struct.ole2_header_tag, ptr %105, i32 0, i32 1
  %107 = getelementptr inbounds [16 x i8], ptr %106, i64 0, i64 11
  %108 = load i8, ptr %107, align 1
  %109 = zext i8 %108 to i32
  %110 = load ptr, ptr %2, align 8
  %111 = getelementptr inbounds %struct.ole2_header_tag, ptr %110, i32 0, i32 1
  %112 = getelementptr inbounds [16 x i8], ptr %111, i64 0, i64 12
  %113 = load i8, ptr %112, align 4
  %114 = zext i8 %113 to i32
  %115 = load ptr, ptr %2, align 8
  %116 = getelementptr inbounds %struct.ole2_header_tag, ptr %115, i32 0, i32 1
  %117 = getelementptr inbounds [16 x i8], ptr %116, i64 0, i64 13
  %118 = load i8, ptr %117, align 1
  %119 = zext i8 %118 to i32
  %120 = load ptr, ptr %2, align 8
  %121 = getelementptr inbounds %struct.ole2_header_tag, ptr %120, i32 0, i32 1
  %122 = getelementptr inbounds [16 x i8], ptr %121, i64 0, i64 14
  %123 = load i8, ptr %122, align 2
  %124 = zext i8 %123 to i32
  %125 = load ptr, ptr %2, align 8
  %126 = getelementptr inbounds %struct.ole2_header_tag, ptr %125, i32 0, i32 1
  %127 = getelementptr inbounds [16 x i8], ptr %126, i64 0, i64 15
  %128 = load i8, ptr %127, align 1
  %129 = zext i8 %128 to i32
  call void (ptr, ...) @cli_dbgmsg(ptr noundef @.str.54, i32 noundef %54, i32 noundef %59, i32 noundef %64, i32 noundef %69, i32 noundef %74, i32 noundef %79, i32 noundef %84, i32 noundef %89, i32 noundef %94, i32 noundef %99, i32 noundef %104, i32 noundef %109, i32 noundef %114, i32 noundef %119, i32 noundef %124, i32 noundef %129)
  %130 = load ptr, ptr %2, align 8
  %131 = getelementptr inbounds %struct.ole2_header_tag, ptr %130, i32 0, i32 2
  %132 = load i16, ptr %131, align 8
  %133 = zext i16 %132 to i32
  call void (ptr, ...) @cli_dbgmsg(ptr noundef @.str.55, i32 noundef %133)
  %134 = load ptr, ptr %2, align 8
  %135 = getelementptr inbounds %struct.ole2_header_tag, ptr %134, i32 0, i32 3
  %136 = load i16, ptr %135, align 2
  %137 = zext i16 %136 to i32
  call void (ptr, ...) @cli_dbgmsg(ptr noundef @.str.56, i32 noundef %137)
  %138 = load ptr, ptr %2, align 8
  %139 = getelementptr inbounds %struct.ole2_header_tag, ptr %138, i32 0, i32 4
  %140 = load i16, ptr %139, align 4
  %141 = sext i16 %140 to i32
  call void (ptr, ...) @cli_dbgmsg(ptr noundef @.str.57, i32 noundef %141)
  %142 = load ptr, ptr %2, align 8
  %143 = getelementptr inbounds %struct.ole2_header_tag, ptr %142, i32 0, i32 5
  %144 = load i16, ptr %143, align 2
  %145 = zext i16 %144 to i32
  call void (ptr, ...) @cli_dbgmsg(ptr noundef @.str.58, i32 noundef %145)
  %146 = load ptr, ptr %2, align 8
  %147 = getelementptr inbounds %struct.ole2_header_tag, ptr %146, i32 0, i32 6
  %148 = load i32, ptr %147, align 8
  call void (ptr, ...) @cli_dbgmsg(ptr noundef @.str.59, i32 noundef %148)
  %149 = load ptr, ptr %2, align 8
  %150 = getelementptr inbounds %struct.ole2_header_tag, ptr %149, i32 0, i32 8
  %151 = load i32, ptr %150, align 4
  call void (ptr, ...) @cli_dbgmsg(ptr noundef @.str.60, i32 noundef %151)
  %152 = load ptr, ptr %2, align 8
  %153 = getelementptr inbounds %struct.ole2_header_tag, ptr %152, i32 0, i32 9
  %154 = load i32, ptr %153, align 8
  call void (ptr, ...) @cli_dbgmsg(ptr noundef @.str.61, i32 noundef %154)
  %155 = load ptr, ptr %2, align 8
  %156 = getelementptr inbounds %struct.ole2_header_tag, ptr %155, i32 0, i32 11
  %157 = load i32, ptr %156, align 8
  call void (ptr, ...) @cli_dbgmsg(ptr noundef @.str.62, i32 noundef %157)
  %158 = load ptr, ptr %2, align 8
  %159 = getelementptr inbounds %struct.ole2_header_tag, ptr %158, i32 0, i32 12
  %160 = load i32, ptr %159, align 4
  call void (ptr, ...) @cli_dbgmsg(ptr noundef @.str.63, i32 noundef %160)
  %161 = load ptr, ptr %2, align 8
  %162 = getelementptr inbounds %struct.ole2_header_tag, ptr %161, i32 0, i32 13
  %163 = load i32, ptr %162, align 8
  call void (ptr, ...) @cli_dbgmsg(ptr noundef @.str.64, i32 noundef %163)
  %164 = load ptr, ptr %2, align 8
  %165 = getelementptr inbounds %struct.ole2_header_tag, ptr %164, i32 0, i32 14
  %166 = load i32, ptr %165, align 4
  call void (ptr, ...) @cli_dbgmsg(ptr noundef @.str.65, i32 noundef %166)
  %167 = load ptr, ptr %2, align 8
  %168 = getelementptr inbounds %struct.ole2_header_tag, ptr %167, i32 0, i32 15
  %169 = load i32, ptr %168, align 8
  call void (ptr, ...) @cli_dbgmsg(ptr noundef @.str.66, i32 noundef %169)
  call void (ptr, ...) @cli_dbgmsg(ptr noundef @.str.52)
  br label %170

170:                                              ; preds = %9, %8
  ret void
}