; Function Attrs: nounwind uwtable
define internal fastcc void @print_ole2_header(ptr noundef readonly %0) unnamed_addr #2 {
  %2 = icmp ne ptr %0, null
  %3 = load i8, ptr @cli_debug_flag, align 1
  %4 = icmp ne i8 %3, 0
  %or.cond = select i1 %2, i1 %4, i1 false
  br i1 %or.cond, label %5, label %105

5:                                                ; preds = %1
  tail call void (ptr, ...) @cli_dbgmsg(ptr noundef nonnull @.str.52) #21
  %6 = load i8, ptr %0, align 8
  %7 = zext i8 %6 to i32
  %8 = getelementptr inbounds i8, ptr %0, i64 1
  %9 = load i8, ptr %8, align 1
  %10 = zext i8 %9 to i32
  %11 = getelementptr inbounds i8, ptr %0, i64 2
  %12 = load i8, ptr %11, align 2
  %13 = zext i8 %12 to i32
  %14 = getelementptr inbounds i8, ptr %0, i64 3
  %15 = load i8, ptr %14, align 1
  %16 = zext i8 %15 to i32
  %17 = getelementptr inbounds i8, ptr %0, i64 4
  %18 = load i8, ptr %17, align 4
  %19 = zext i8 %18 to i32
  %20 = getelementptr inbounds i8, ptr %0, i64 5
  %21 = load i8, ptr %20, align 1
  %22 = zext i8 %21 to i32
  %23 = getelementptr inbounds i8, ptr %0, i64 6
  %24 = load i8, ptr %23, align 2
  %25 = zext i8 %24 to i32
  %26 = getelementptr inbounds i8, ptr %0, i64 7
  %27 = load i8, ptr %26, align 1
  %28 = zext i8 %27 to i32
  tail call void (ptr, ...) @cli_dbgmsg(ptr noundef nonnull @.str.53, i32 noundef %7, i32 noundef %10, i32 noundef %13, i32 noundef %16, i32 noundef %19, i32 noundef %22, i32 noundef %25, i32 noundef %28) #21
  %29 = getelementptr inbounds i8, ptr %0, i64 8
  %30 = load i8, ptr %29, align 8
  %31 = zext i8 %30 to i32
  %32 = getelementptr inbounds i8, ptr %0, i64 9
  %33 = load i8, ptr %32, align 1
  %34 = zext i8 %33 to i32
  %35 = getelementptr inbounds i8, ptr %0, i64 10
  %36 = load i8, ptr %35, align 2
  %37 = zext i8 %36 to i32
  %38 = getelementptr inbounds i8, ptr %0, i64 11
  %39 = load i8, ptr %38, align 1
  %40 = zext i8 %39 to i32
  %41 = getelementptr inbounds i8, ptr %0, i64 12
  %42 = load i8, ptr %41, align 4
  %43 = zext i8 %42 to i32
  %44 = getelementptr inbounds i8, ptr %0, i64 13
  %45 = load i8, ptr %44, align 1
  %46 = zext i8 %45 to i32
  %47 = getelementptr inbounds i8, ptr %0, i64 14
  %48 = load i8, ptr %47, align 2
  %49 = zext i8 %48 to i32
  %50 = getelementptr inbounds i8, ptr %0, i64 15
  %51 = load i8, ptr %50, align 1
  %52 = zext i8 %51 to i32
  %53 = getelementptr inbounds i8, ptr %0, i64 16
  %54 = load i8, ptr %53, align 8
  %55 = zext i8 %54 to i32
  %56 = getelementptr inbounds i8, ptr %0, i64 17
  %57 = load i8, ptr %56, align 1
  %58 = zext i8 %57 to i32
  %59 = getelementptr inbounds i8, ptr %0, i64 18
  %60 = load i8, ptr %59, align 2
  %61 = zext i8 %60 to i32
  %62 = getelementptr inbounds i8, ptr %0, i64 19
  %63 = load i8, ptr %62, align 1
  %64 = zext i8 %63 to i32
  %65 = getelementptr inbounds i8, ptr %0, i64 20
  %66 = load i8, ptr %65, align 4
  %67 = zext i8 %66 to i32
  %68 = getelementptr inbounds i8, ptr %0, i64 21
  %69 = load i8, ptr %68, align 1
  %70 = zext i8 %69 to i32
  %71 = getelementptr inbounds i8, ptr %0, i64 22
  %72 = load i8, ptr %71, align 2
  %73 = zext i8 %72 to i32
  %74 = getelementptr inbounds i8, ptr %0, i64 23
  %75 = load i8, ptr %74, align 1
  %76 = zext i8 %75 to i32
  tail call void (ptr, ...) @cli_dbgmsg(ptr noundef nonnull @.str.54, i32 noundef %31, i32 noundef %34, i32 noundef %37, i32 noundef %40, i32 noundef %43, i32 noundef %46, i32 noundef %49, i32 noundef %52, i32 noundef %55, i32 noundef %58, i32 noundef %61, i32 noundef %64, i32 noundef %67, i32 noundef %70, i32 noundef %73, i32 noundef %76) #21
  %77 = getelementptr inbounds i8, ptr %0, i64 24
  %78 = load i16, ptr %77, align 8
  %79 = zext i16 %78 to i32
  tail call void (ptr, ...) @cli_dbgmsg(ptr noundef nonnull @.str.55, i32 noundef %79) #21
  %80 = getelementptr inbounds i8, ptr %0, i64 26
  %81 = load i16, ptr %80, align 2
  %82 = zext i16 %81 to i32
  tail call void (ptr, ...) @cli_dbgmsg(ptr noundef nonnull @.str.56, i32 noundef %82) #21
  %83 = getelementptr inbounds i8, ptr %0, i64 28
  %84 = load i16, ptr %83, align 4
  %85 = sext i16 %84 to i32
  tail call void (ptr, ...) @cli_dbgmsg(ptr noundef nonnull @.str.57, i32 noundef %85) #21
  %86 = getelementptr inbounds i8, ptr %0, i64 30
  %87 = load i16, ptr %86, align 2
  %88 = zext i16 %87 to i32
  tail call void (ptr, ...) @cli_dbgmsg(ptr noundef nonnull @.str.58, i32 noundef %88) #21
  %89 = getelementptr inbounds i8, ptr %0, i64 32
  %90 = load i32, ptr %89, align 8
  tail call void (ptr, ...) @cli_dbgmsg(ptr noundef nonnull @.str.59, i32 noundef %90) #21
  %91 = getelementptr inbounds i8, ptr %0, i64 44
  %92 = load i32, ptr %91, align 4
  tail call void (ptr, ...) @cli_dbgmsg(ptr noundef nonnull @.str.60, i32 noundef %92) #21
  %93 = getelementptr inbounds i8, ptr %0, i64 48
  %94 = load i32, ptr %93, align 8
  tail call void (ptr, ...) @cli_dbgmsg(ptr noundef nonnull @.str.61, i32 noundef %94) #21
  %95 = getelementptr inbounds i8, ptr %0, i64 56
  %96 = load i32, ptr %95, align 8
  tail call void (ptr, ...) @cli_dbgmsg(ptr noundef nonnull @.str.62, i32 noundef %96) #21
  %97 = getelementptr inbounds i8, ptr %0, i64 60
  %98 = load i32, ptr %97, align 4
  tail call void (ptr, ...) @cli_dbgmsg(ptr noundef nonnull @.str.63, i32 noundef %98) #21
  %99 = getelementptr inbounds i8, ptr %0, i64 64
  %100 = load i32, ptr %99, align 8
  tail call void (ptr, ...) @cli_dbgmsg(ptr noundef nonnull @.str.64, i32 noundef %100) #21
  %101 = getelementptr inbounds i8, ptr %0, i64 68
  %102 = load i32, ptr %101, align 4
  tail call void (ptr, ...) @cli_dbgmsg(ptr noundef nonnull @.str.65, i32 noundef %102) #21
  %103 = getelementptr inbounds i8, ptr %0, i64 72
  %104 = load i32, ptr %103, align 8
  tail call void (ptr, ...) @cli_dbgmsg(ptr noundef nonnull @.str.66, i32 noundef %104) #21
  tail call void (ptr, ...) @cli_dbgmsg(ptr noundef nonnull @.str.52) #21
  br label %105

105:                                              ; preds = %1, %5
  ret void
}